/*
 * Intel ACPI Component Architecture
 * AML/ASL+ Disassembler version 20251212 (64-bit version)
 * Copyright (c) 2000 - 2025 Intel Corporation
 * 
 * Disassembly of crat.dat
 *
 * ACPI Data Table [CRAT]
 *
 * Format: [HexOffset DecimalOffset ByteLength]  FieldName : FieldValue (in hex)
 */

[000h 0000 004h]                   Signature : "CRAT"    
[004h 0004 004h]                Table Length : 00000B80
[008h 0008 001h]                    Revision : 01
[009h 0009 001h]                    Checksum : E3
[00Ah 0010 006h]                      Oem ID : "AMD"
[010h 0016 008h]                Oem Table ID : "AmdTable"
[018h 0024 004h]                Oem Revision : 00000001
[01Ch 0028 004h]             Asl Compiler ID : "AMD "
[020h 0032 004h]       Asl Compiler Revision : 00000001


**** Unknown ACPI table signature [CRAT]


Raw Table Data: Length 2944 (0xB80)

    0000: 43 52 41 54 80 0B 00 00 01 E3 41 4D 44 00 00 00  // CRAT......AMD...
    0010: 41 6D 64 54 61 62 6C 65 01 00 00 00 41 4D 44 20  // AmdTable....AMD 
    0020: 01 00 00 00 2E 00 00 00 00 00 00 00 00 00 00 00  // ................
    0030: 01 28 00 00 01 00 00 00 00 00 00 00 00 00 00 00  // .(..............
    0040: 00 00 00 00 00 00 00 80 00 00 00 00 40 00 00 00  // ............@...
    0050: 00 00 00 00 00 00 00 00 01 28 00 00 01 00 00 00  // .........(......
    0060: 00 00 00 00 00 00 00 00 01 00 00 00 00 00 00 80  // ................
    0070: 01 00 00 00 40 00 00 00 00 00 00 00 00 00 00 00  // ....@...........
    0080: 02 40 00 00 0B 00 00 00 00 00 00 00 03 00 00 00  // .@..............
    0090: 00 00 00 00 00 00 00 00 00 00 00 00 00 00 00 00  // ................
    00A0: 00 00 00 00 00 00 00 00 00 00 00 00 20 00 00 00  // ............ ...
    00B0: 01 01 40 00 08 00 01 00 00 00 00 00 00 00 00 00  // ..@.............
    00C0: 02 40 00 00 0D 00 00 00 00 00 00 00 03 00 00 00  // .@..............
    00D0: 00 00 00 00 00 00 00 00 00 00 00 00 00 00 00 00  // ................
    00E0: 00 00 00 00 00 00 00 00 00 00 00 00 20 00 00 00  // ............ ...
    00F0: 01 01 40 00 08 00 01 00 00 00 00 00 00 00 00 00  // ..@.............
    0100: 02 40 00 00 0F 00 00 00 00 00 00 00 03 00 00 00  // .@..............
    0110: 00 00 00 00 00 00 00 00 00 00 00 00 00 00 00 00  // ................
    0120: 00 00 00 00 00 00 00 00 00 00 00 00 00 02 00 00  // ................
    0130: 02 01 40 00 08 02 01 00 00 00 00 00 00 00 00 00  // ..@.............
    0140: 02 40 00 00 0F 00 00 00 00 00 00 00 3F 00 00 00  // .@..........?...
    0150: 00 00 00 00 00 00 00 00 00 00 00 00 00 00 00 00  // ................
    0160: 00 00 00 00 00 00 00 00 00 00 00 00 00 10 00 00  // ................
    0170: 03 01 40 00 10 00 01 00 00 00 00 00 00 00 00 00  // ..@.............
    0180: 02 40 00 00 0B 00 00 00 02 00 00 00 0C 00 00 00  // .@..............
    0190: 00 00 00 00 00 00 00 00 00 00 00 00 00 00 00 00  // ................
    01A0: 00 00 00 00 00 00 00 00 00 00 00 00 20 00 00 00  // ............ ...
    01B0: 01 01 40 00 08 00 01 00 00 00 00 00 00 00 00 00  // ..@.............
    01C0: 02 40 00 00 0D 00 00 00 02 00 00 00 0C 00 00 00  // .@..............
    01D0: 00 00 00 00 00 00 00 00 00 00 00 00 00 00 00 00  // ................
    01E0: 00 00 00 00 00 00 00 00 00 00 00 00 20 00 00 00  // ............ ...
    01F0: 01 01 40 00 08 00 01 00 00 00 00 00 00 00 00 00  // ..@.............
    0200: 02 40 00 00 0F 00 00 00 02 00 00 00 0C 00 00 00  // .@..............
    0210: 00 00 00 00 00 00 00 00 00 00 00 00 00 00 00 00  // ................
    0220: 00 00 00 00 00 00 00 00 00 00 00 00 00 02 00 00  // ................
    0230: 02 01 40 00 08 02 01 00 00 00 00 00 00 00 00 00  // ..@.............
    0240: 02 40 00 00 0B 00 00 00 04 00 00 00 30 00 00 00  // .@..........0...
    0250: 00 00 00 00 00 00 00 00 00 00 00 00 00 00 00 00  // ................
    0260: 00 00 00 00 00 00 00 00 00 00 00 00 20 00 00 00  // ............ ...
    0270: 01 01 40 00 08 00 01 00 00 00 00 00 00 00 00 00  // ..@.............
    0280: 02 40 00 00 0D 00 00 00 04 00 00 00 30 00 00 00  // .@..........0...
    0290: 00 00 00 00 00 00 00 00 00 00 00 00 00 00 00 00  // ................
    02A0: 00 00 00 00 00 00 00 00 00 00 00 00 20 00 00 00  // ............ ...
    02B0: 01 01 40 00 08 00 01 00 00 00 00 00 00 00 00 00  // ..@.............
    02C0: 02 40 00 00 0F 00 00 00 04 00 00 00 30 00 00 00  // .@..........0...
    02D0: 00 00 00 00 00 00 00 00 00 00 00 00 00 00 00 00  // ................
    02E0: 00 00 00 00 00 00 00 00 00 00 00 00 00 02 00 00  // ................
    02F0: 02 01 40 00 08 02 01 00 00 00 00 00 00 00 00 00  // ..@.............
    0300: 02 40 00 00 0B 00 00 00 08 00 00 00 C0 00 00 00  // .@..............
    0310: 00 00 00 00 00 00 00 00 00 00 00 00 00 00 00 00  // ................
    0320: 00 00 00 00 00 00 00 00 00 00 00 00 20 00 00 00  // ............ ...
    0330: 01 01 40 00 08 00 01 00 00 00 00 00 00 00 00 00  // ..@.............
    0340: 02 40 00 00 0D 00 00 00 08 00 00 00 C0 00 00 00  // .@..............
    0350: 00 00 00 00 00 00 00 00 00 00 00 00 00 00 00 00  // ................
    0360: 00 00 00 00 00 00 00 00 00 00 00 00 20 00 00 00  // ............ ...
    0370: 01 01 40 00 08 00 01 00 00 00 00 00 00 00 00 00  // ..@.............
    0380: 02 40 00 00 0F 00 00 00 08 00 00 00 C0 00 00 00  // .@..............
    0390: 00 00 00 00 00 00 00 00 00 00 00 00 00 00 00 00  // ................
    03A0: 00 00 00 00 00 00 00 00 00 00 00 00 00 02 00 00  // ................
    03B0: 02 01 40 00 08 02 01 00 00 00 00 00 00 00 00 00  // ..@.............
    03C0: 02 40 00 00 0F 00 00 00 08 00 00 00 C0 00 00 00  // .@..............
    03D0: 00 00 00 00 00 00 00 00 00 00 00 00 00 00 00 00  // ................
    03E0: 00 00 00 00 00 00 00 00 00 00 00 00 00 10 00 00  // ................
    03F0: 03 01 40 00 10 00 01 00 00 00 00 00 00 00 00 00  // ..@.............
    0400: 02 40 00 00 0B 00 00 00 0A 00 00 00 00 03 00 00  // .@..............
    0410: 00 00 00 00 00 00 00 00 00 00 00 00 00 00 00 00  // ................
    0420: 00 00 00 00 00 00 00 00 00 00 00 00 20 00 00 00  // ............ ...
    0430: 01 01 40 00 08 00 01 00 00 00 00 00 00 00 00 00  // ..@.............
    0440: 02 40 00 00 0D 00 00 00 0A 00 00 00 00 03 00 00  // .@..............
    0450: 00 00 00 00 00 00 00 00 00 00 00 00 00 00 00 00  // ................
    0460: 00 00 00 00 00 00 00 00 00 00 00 00 20 00 00 00  // ............ ...
    0470: 01 01 40 00 08 00 01 00 00 00 00 00 00 00 00 00  // ..@.............
    0480: 02 40 00 00 0F 00 00 00 0A 00 00 00 00 03 00 00  // .@..............
    0490: 00 00 00 00 00 00 00 00 00 00 00 00 00 00 00 00  // ................
    04A0: 00 00 00 00 00 00 00 00 00 00 00 00 00 02 00 00  // ................
    04B0: 02 01 40 00 08 02 01 00 00 00 00 00 00 00 00 00  // ..@.............
    04C0: 02 40 00 00 0B 00 00 00 0C 00 00 00 00 0C 00 00  // .@..............
    04D0: 00 00 00 00 00 00 00 00 00 00 00 00 00 00 00 00  // ................
    04E0: 00 00 00 00 00 00 00 00 00 00 00 00 20 00 00 00  // ............ ...
    04F0: 01 01 40 00 08 00 01 00 00 00 00 00 00 00 00 00  // ..@.............
    0500: 02 40 00 00 0D 00 00 00 0C 00 00 00 00 0C 00 00  // .@..............
    0510: 00 00 00 00 00 00 00 00 00 00 00 00 00 00 00 00  // ................
    0520: 00 00 00 00 00 00 00 00 00 00 00 00 20 00 00 00  // ............ ...
    0530: 01 01 40 00 08 00 01 00 00 00 00 00 00 00 00 00  // ..@.............
    0540: 02 40 00 00 0F 00 00 00 0C 00 00 00 00 0C 00 00  // .@..............
    0550: 00 00 00 00 00 00 00 00 00 00 00 00 00 00 00 00  // ................
    0560: 00 00 00 00 00 00 00 00 00 00 00 00 00 02 00 00  // ................
    0570: 02 01 40 00 08 02 01 00 00 00 00 00 00 00 00 00  // ..@.............
    0580: 03 40 00 00 0B 00 00 00 00 00 00 00 03 00 00 00  // .@..............
    0590: 00 00 00 00 00 00 00 00 00 00 00 00 00 00 00 00  // ................
    05A0: 00 00 00 00 00 00 00 00 00 00 00 00 01 00 00 00  // ................
    05B0: FF 40 00 00 FF 40 00 00 0F 40 00 00 00 00 00 00  // .@...@...@......
    05C0: 03 40 00 00 0D 00 00 00 00 00 00 00 03 00 00 00  // .@..............
    05D0: 00 00 00 00 00 00 00 00 00 00 00 00 00 00 00 00  // ................
    05E0: 00 00 00 00 00 00 00 00 00 00 00 00 01 00 00 00  // ................
    05F0: 00 00 FF 40 00 00 FF 40 00 00 0F 40 00 00 00 00  // ...@...@...@....
    0600: 03 40 00 00 AB 00 00 00 00 00 00 00 03 00 00 00  // .@..............
    0610: 00 00 00 00 00 00 00 00 00 00 00 00 00 00 00 00  // ................
    0620: 00 00 00 00 00 00 00 00 00 00 00 00 02 00 00 00  // ................
    0630: 04 08 00 00 08 08 00 00 00 40 00 00 00 00 00 00  // .........@......
    0640: 03 40 00 00 AD 00 00 00 00 00 00 00 03 00 00 00  // .@..............
    0650: 00 00 00 00 00 00 00 00 00 00 00 00 00 00 00 00  // ................
    0660: 00 00 00 00 00 00 00 00 00 00 00 00 02 00 00 00  // ................
    0670: 00 00 08 04 00 00 08 04 00 00 00 00 00 00 00 00  // ................
    0680: 03 40 00 00 0B 00 00 00 02 00 00 00 0C 00 00 00  // .@..............
    0690: 00 00 00 00 00 00 00 00 00 00 00 00 00 00 00 00  // ................
    06A0: 00 00 00 00 00 00 00 00 00 00 00 00 01 00 00 00  // ................
    06B0: FF 40 00 00 FF 40 00 00 0F 40 00 00 00 00 00 00  // .@...@...@......
    06C0: 03 40 00 00 0D 00 00 00 02 00 00 00 0C 00 00 00  // .@..............
    06D0: 00 00 00 00 00 00 00 00 00 00 00 00 00 00 00 00  // ................
    06E0: 00 00 00 00 00 00 00 00 00 00 00 00 01 00 00 00  // ................
    06F0: 00 00 FF 40 00 00 FF 40 00 00 0F 40 00 00 00 00  // ...@...@...@....
    0700: 03 40 00 00 AB 00 00 00 02 00 00 00 0C 00 00 00  // .@..............
    0710: 00 00 00 00 00 00 00 00 00 00 00 00 00 00 00 00  // ................
    0720: 00 00 00 00 00 00 00 00 00 00 00 00 02 00 00 00  // ................
    0730: 04 08 00 00 08 08 00 00 00 40 00 00 00 00 00 00  // .........@......
    0740: 03 40 00 00 AD 00 00 00 02 00 00 00 0C 00 00 00  // .@..............
    0750: 00 00 00 00 00 00 00 00 00 00 00 00 00 00 00 00  // ................
    0760: 00 00 00 00 00 00 00 00 00 00 00 00 02 00 00 00  // ................
    0770: 00 00 08 04 00 00 08 04 00 00 00 00 00 00 00 00  // ................
    0780: 03 40 00 00 0B 00 00 00 04 00 00 00 30 00 00 00  // .@..........0...
    0790: 00 00 00 00 00 00 00 00 00 00 00 00 00 00 00 00  // ................
    07A0: 00 00 00 00 00 00 00 00 00 00 00 00 01 00 00 00  // ................
    07B0: FF 40 00 00 FF 40 00 00 0F 40 00 00 00 00 00 00  // .@...@...@......
    07C0: 03 40 00 00 0D 00 00 00 04 00 00 00 30 00 00 00  // .@..........0...
    07D0: 00 00 00 00 00 00 00 00 00 00 00 00 00 00 00 00  // ................
    07E0: 00 00 00 00 00 00 00 00 00 00 00 00 01 00 00 00  // ................
    07F0: 00 00 FF 40 00 00 FF 40 00 00 0F 40 00 00 00 00  // ...@...@...@....
    0800: 03 40 00 00 AB 00 00 00 04 00 00 00 30 00 00 00  // .@..........0...
    0810: 00 00 00 00 00 00 00 00 00 00 00 00 00 00 00 00  // ................
    0820: 00 00 00 00 00 00 00 00 00 00 00 00 02 00 00 00  // ................
    0830: 04 08 00 00 08 08 00 00 00 40 00 00 00 00 00 00  // .........@......
    0840: 03 40 00 00 AD 00 00 00 04 00 00 00 30 00 00 00  // .@..........0...
    0850: 00 00 00 00 00 00 00 00 00 00 00 00 00 00 00 00  // ................
    0860: 00 00 00 00 00 00 00 00 00 00 00 00 02 00 00 00  // ................
    0870: 00 00 08 04 00 00 08 04 00 00 00 00 00 00 00 00  // ................
    0880: 03 40 00 00 0B 00 00 00 08 00 00 00 C0 00 00 00  // .@..............
    0890: 00 00 00 00 00 00 00 00 00 00 00 00 00 00 00 00  // ................
    08A0: 00 00 00 00 00 00 00 00 00 00 00 00 01 00 00 00  // ................
    08B0: FF 40 00 00 FF 40 00 00 0F 40 00 00 00 00 00 00  // .@...@...@......
    08C0: 03 40 00 00 0D 00 00 00 08 00 00 00 C0 00 00 00  // .@..............
    08D0: 00 00 00 00 00 00 00 00 00 00 00 00 00 00 00 00  // ................
    08E0: 00 00 00 00 00 00 00 00 00 00 00 00 01 00 00 00  // ................
    08F0: 00 00 FF 40 00 00 FF 40 00 00 0F 40 00 00 00 00  // ...@...@...@....
    0900: 03 40 00 00 AB 00 00 00 08 00 00 00 C0 00 00 00  // .@..............
    0910: 00 00 00 00 00 00 00 00 00 00 00 00 00 00 00 00  // ................
    0920: 00 00 00 00 00 00 00 00 00 00 00 00 02 00 00 00  // ................
    0930: 04 08 00 00 08 08 00 00 00 40 00 00 00 00 00 00  // .........@......
    0940: 03 40 00 00 AD 00 00 00 08 00 00 00 C0 00 00 00  // .@..............
    0950: 00 00 00 00 00 00 00 00 00 00 00 00 00 00 00 00  // ................
    0960: 00 00 00 00 00 00 00 00 00 00 00 00 02 00 00 00  // ................
    0970: 00 00 08 04 00 00 08 04 00 00 00 00 00 00 00 00  // ................
    0980: 03 40 00 00 0B 00 00 00 0A 00 00 00 00 03 00 00  // .@..............
    0990: 00 00 00 00 00 00 00 00 00 00 00 00 00 00 00 00  // ................
    09A0: 00 00 00 00 00 00 00 00 00 00 00 00 01 00 00 00  // ................
    09B0: FF 40 00 00 FF 40 00 00 0F 40 00 00 00 00 00 00  // .@...@...@......
    09C0: 03 40 00 00 0D 00 00 00 0A 00 00 00 00 03 00 00  // .@..............
    09D0: 00 00 00 00 00 00 00 00 00 00 00 00 00 00 00 00  // ................
    09E0: 00 00 00 00 00 00 00 00 00 00 00 00 01 00 00 00  // ................
    09F0: 00 00 FF 40 00 00 FF 40 00 00 0F 40 00 00 00 00  // ...@...@...@....
    0A00: 03 40 00 00 AB 00 00 00 0A 00 00 00 00 03 00 00  // .@..............
    0A10: 00 00 00 00 00 00 00 00 00 00 00 00 00 00 00 00  // ................
    0A20: 00 00 00 00 00 00 00 00 00 00 00 00 02 00 00 00  // ................
    0A30: 04 08 00 00 08 08 00 00 00 40 00 00 00 00 00 00  // .........@......
    0A40: 03 40 00 00 AD 00 00 00 0A 00 00 00 00 03 00 00  // .@..............
    0A50: 00 00 00 00 00 00 00 00 00 00 00 00 00 00 00 00  // ................
    0A60: 00 00 00 00 00 00 00 00 00 00 00 00 02 00 00 00  // ................
    0A70: 00 00 08 04 00 00 08 04 00 00 00 00 00 00 00 00  // ................
    0A80: 03 40 00 00 0B 00 00 00 0C 00 00 00 00 0C 00 00  // .@..............
    0A90: 00 00 00 00 00 00 00 00 00 00 00 00 00 00 00 00  // ................
    0AA0: 00 00 00 00 00 00 00 00 00 00 00 00 01 00 00 00  // ................
    0AB0: FF 40 00 00 FF 40 00 00 0F 40 00 00 00 00 00 00  // .@...@...@......
    0AC0: 03 40 00 00 0D 00 00 00 0C 00 00 00 00 0C 00 00  // .@..............
    0AD0: 00 00 00 00 00 00 00 00 00 00 00 00 00 00 00 00  // ................
    0AE0: 00 00 00 00 00 00 00 00 00 00 00 00 01 00 00 00  // ................
    0AF0: 00 00 FF 40 00 00 FF 40 00 00 0F 40 00 00 00 00  // ...@...@...@....
    0B00: 03 40 00 00 AB 00 00 00 0C 00 00 00 00 0C 00 00  // .@..............
    0B10: 00 00 00 00 00 00 00 00 00 00 00 00 00 00 00 00  // ................
    0B20: 00 00 00 00 00 00 00 00 00 00 00 00 02 00 00 00  // ................
    0B30: 04 08 00 00 08 08 00 00 00 40 00 00 00 00 00 00  // .........@......
    0B40: 03 40 00 00 AD 00 00 00 0C 00 00 00 00 0C 00 00  // .@..............
    0B50: 00 00 00 00 00 00 00 00 00 00 00 00 00 00 00 00  // ................
    0B60: 00 00 00 00 00 00 00 00 00 00 00 00 02 00 00 00  // ................
    0B70: 00 00 08 04 00 00 08 04 00 00 00 00 00 00 00 00  // ................
